target datalayout = "e-m:e-p270:32:32-p271:32:32-p272:64:64-i64:64-i128:128-f80:128-n8:16:32:64-S128"
target triple = "x86_64-pc-linux-gnu"

%struct.expert_field = type { i32, i32 }

@ei_bssgp_missing_mandatory_element = internal global %struct.expert_field zeroinitializer, align 4
@.str.6 = private unnamed_addr constant [71 x i8] c"Missing Mandatory element (0x%02x) %s%s, rest of dissection is suspect\00", align 1
@.str.7 = private unnamed_addr constant [1 x i8] zeroinitializer, align 1

; Function Attrs: null_pointer_is_valid sspstrong uwtable
define hidden zeroext i16 @de_bssgp_source_BSS_to_target_BSS_transp_cont(ptr noundef %0, ptr noundef %1, ptr noundef %2, i32 noundef %3, i32 noundef %4, ptr noundef %5, i32 noundef %6) #1 {
  %8 = alloca ptr, align 8
  %9 = alloca ptr, align 8
  %10 = alloca ptr, align 8
  %11 = alloca i32, align 4
  %12 = alloca i32, align 4
  %13 = alloca ptr, align 8
  %14 = alloca i32, align 4
  %15 = alloca i32, align 4
  %16 = alloca i32, align 4
  %17 = alloca i32, align 4
  store ptr %0, ptr %8, align 8
  store ptr %1, ptr %9, align 8
  store ptr %2, ptr %10, align 8
  store i32 %3, ptr %11, align 4
  store i32 %4, ptr %12, align 4
  store ptr %5, ptr %13, align 8
  store i32 %6, ptr %14, align 4
  call void @llvm.lifetime.start.p0(i64 4, ptr %15) #4
  call void @llvm.lifetime.start.p0(i64 4, ptr %16) #4
  call void @llvm.lifetime.start.p0(i64 4, ptr %17) #4
  %18 = load i32, ptr %11, align 4
  store i32 %18, ptr %15, align 4
  %19 = load i32, ptr %12, align 4
  store i32 %19, ptr %17, align 4
  %20 = load ptr, ptr %8, align 8
  %21 = load ptr, ptr %9, align 8
  %22 = load ptr, ptr %10, align 8
  %23 = load i32, ptr %15, align 4
  %24 = load i32, ptr %17, align 4
  %25 = call zeroext i16 @elem_telv(ptr noundef %20, ptr noundef %21, ptr noundef %22, i8 noundef zeroext 19, i32 noundef 5, i32 noundef 16, i32 noundef %23, i32 noundef %24, ptr noundef null)
  %26 = zext i16 %25 to i32
  store i32 %26, ptr %16, align 4
  %27 = icmp ugt i32 %26, 0
  br i1 %27, label %28, label %35

28:                                               ; preds = %7
  %29 = load i32, ptr %16, align 4
  %30 = load i32, ptr %15, align 4
  %31 = add i32 %30, %29
  store i32 %31, ptr %15, align 4
  %32 = load i32, ptr %16, align 4
  %33 = load i32, ptr %17, align 4
  %34 = sub i32 %33, %32
  store i32 %34, ptr %17, align 4
  br label %42

35:                                               ; preds = %7
  %36 = load ptr, ptr %9, align 8
  %37 = load ptr, ptr %10, align 8
  %38 = load ptr, ptr %8, align 8
  %39 = load i32, ptr %15, align 4
  %40 = call ptr @get_gsm_a_msg_string(i32 noundef 5, i32 noundef 16)
  %41 = call ptr (ptr, ptr, ptr, ptr, i32, i32, ptr, ...) @proto_tree_add_expert_format(ptr noundef %36, ptr noundef %37, ptr noundef @ei_bssgp_missing_mandatory_element, ptr noundef %38, i32 noundef %39, i32 noundef 0, ptr noundef @.str.6, i32 noundef 19, ptr noundef %40, ptr noundef @.str.7)
  br label %42

42:                                               ; preds = %35, %28
  %43 = load i32, ptr %17, align 4
  %44 = icmp ne i32 %43, 0
  br i1 %44, label %45, label %62

45:                                               ; preds = %42
  %46 = load ptr, ptr %8, align 8
  %47 = load ptr, ptr %9, align 8
  %48 = load ptr, ptr %10, align 8
  %49 = load i32, ptr %15, align 4
  %50 = load i32, ptr %17, align 4
  %51 = call zeroext i16 @elem_telv(ptr noundef %46, ptr noundef %47, ptr noundef %48, i8 noundef zeroext 115, i32 noundef 13, i32 noundef 84, i32 noundef %49, i32 noundef %50, ptr noundef null)
  %52 = zext i16 %51 to i32
  store i32 %52, ptr %16, align 4
  %53 = icmp ugt i32 %52, 0
  br i1 %53, label %54, label %61

54:                                               ; preds = %45
  %55 = load i32, ptr %16, align 4
  %56 = load i32, ptr %15, align 4
  %57 = add i32 %56, %55
  store i32 %57, ptr %15, align 4
  %58 = load i32, ptr %16, align 4
  %59 = load i32, ptr %17, align 4
  %60 = sub i32 %59, %58
  store i32 %60, ptr %17, align 4
  br label %61

61:                                               ; preds = %54, %45
  br label %62

62:                                               ; preds = %61, %42
  %63 = load i32, ptr %17, align 4
  %64 = icmp ne i32 %63, 0
  br i1 %64, label %65, label %82

65:                                               ; preds = %62
  %66 = load ptr, ptr %8, align 8
  %67 = load ptr, ptr %9, align 8
  %68 = load ptr, ptr %10, align 8
  %69 = load i32, ptr %15, align 4
  %70 = load i32, ptr %17, align 4
  %71 = call zeroext i16 @elem_telv(ptr noundef %66, ptr noundef %67, ptr noundef %68, i8 noundef zeroext 109, i32 noundef 13, i32 noundef 79, i32 noundef %69, i32 noundef %70, ptr noundef null)
  %72 = zext i16 %71 to i32
  store i32 %72, ptr %16, align 4
  %73 = icmp ugt i32 %72, 0
  br i1 %73, label %74, label %81

74:                                               ; preds = %65
  %75 = load i32, ptr %16, align 4
  %76 = load i32, ptr %15, align 4
  %77 = add i32 %76, %75
  store i32 %77, ptr %15, align 4
  %78 = load i32, ptr %16, align 4
  %79 = load i32, ptr %17, align 4
  %80 = sub i32 %79, %78
  store i32 %80, ptr %17, align 4
  br label %81

81:                                               ; preds = %74, %65
  br label %82

82:                                               ; preds = %81, %62
  %83 = load i32, ptr %17, align 4
  %84 = icmp ne i32 %83, 0
  br i1 %84, label %85, label %102

85:                                               ; preds = %82
  %86 = load ptr, ptr %8, align 8
  %87 = load ptr, ptr %9, align 8
  %88 = load ptr, ptr %10, align 8
  %89 = load i32, ptr %15, align 4
  %90 = load i32, ptr %17, align 4
  %91 = call zeroext i16 @elem_telv(ptr noundef %86, ptr noundef %87, ptr noundef %88, i8 noundef zeroext 110, i32 noundef 13, i32 noundef 80, i32 noundef %89, i32 noundef %90, ptr noundef null)
  %92 = zext i16 %91 to i32
  store i32 %92, ptr %16, align 4
  %93 = icmp ugt i32 %92, 0
  br i1 %93, label %94, label %101

94:                                               ; preds = %85
  %95 = load i32, ptr %16, align 4
  %96 = load i32, ptr %15, align 4
  %97 = add i32 %96, %95
  store i32 %97, ptr %15, align 4
  %98 = load i32, ptr %16, align 4
  %99 = load i32, ptr %17, align 4
  %100 = sub i32 %99, %98
  store i32 %100, ptr %17, align 4
  br label %101

101:                                              ; preds = %94, %85
  br label %102

102:                                              ; preds = %101, %82
  %103 = load i32, ptr %17, align 4
  %104 = icmp ne i32 %103, 0
  br i1 %104, label %105, label %122

105:                                              ; preds = %102
  %106 = load ptr, ptr %8, align 8
  %107 = load ptr, ptr %9, align 8
  %108 = load ptr, ptr %10, align 8
  %109 = load i32, ptr %15, align 4
  %110 = load i32, ptr %17, align 4
  %111 = call zeroext i16 @elem_telv(ptr noundef %106, ptr noundef %107, ptr noundef %108, i8 noundef zeroext 111, i32 noundef 13, i32 noundef 81, i32 noundef %109, i32 noundef %110, ptr noundef null)
  %112 = zext i16 %111 to i32
  store i32 %112, ptr %16, align 4
  %113 = icmp ugt i32 %112, 0
  br i1 %113, label %114, label %121

114:                                              ; preds = %105
  %115 = load i32, ptr %16, align 4
  %116 = load i32, ptr %15, align 4
  %117 = add i32 %116, %115
  store i32 %117, ptr %15, align 4
  %118 = load i32, ptr %16, align 4
  %119 = load i32, ptr %17, align 4
  %120 = sub i32 %119, %118
  store i32 %120, ptr %17, align 4
  br label %121

121:                                              ; preds = %114, %105
  br label %122

122:                                              ; preds = %121, %102
  %123 = load i32, ptr %17, align 4
  %124 = icmp ne i32 %123, 0
  br i1 %124, label %125, label %142

125:                                              ; preds = %122
  %126 = load ptr, ptr %8, align 8
  %127 = load ptr, ptr %9, align 8
  %128 = load ptr, ptr %10, align 8
  %129 = load i32, ptr %15, align 4
  %130 = load i32, ptr %17, align 4
  %131 = call zeroext i16 @elem_telv(ptr noundef %126, ptr noundef %127, ptr noundef %128, i8 noundef zeroext 117, i32 noundef 13, i32 noundef 86, i32 noundef %129, i32 noundef %130, ptr noundef null)
  %132 = zext i16 %131 to i32
  store i32 %132, ptr %16, align 4
  %133 = icmp ugt i32 %132, 0
  br i1 %133, label %134, label %141

134:                                              ; preds = %125
  %135 = load i32, ptr %16, align 4
  %136 = load i32, ptr %15, align 4
  %137 = add i32 %136, %135
  store i32 %137, ptr %15, align 4
  %138 = load i32, ptr %16, align 4
  %139 = load i32, ptr %17, align 4
  %140 = sub i32 %139, %138
  store i32 %140, ptr %17, align 4
  br label %141

141:                                              ; preds = %134, %125
  br label %142

142:                                              ; preds = %141, %122
  %143 = load i32, ptr %17, align 4
  %144 = icmp ne i32 %143, 0
  br i1 %144, label %145, label %162

145:                                              ; preds = %142
  %146 = load ptr, ptr %8, align 8
  %147 = load ptr, ptr %9, align 8
  %148 = load ptr, ptr %10, align 8
  %149 = load i32, ptr %15, align 4
  %150 = load i32, ptr %17, align 4
  %151 = call zeroext i16 @elem_telv(ptr noundef %146, ptr noundef %147, ptr noundef %148, i8 noundef zeroext 122, i32 noundef 13, i32 noundef 91, i32 noundef %149, i32 noundef %150, ptr noundef null)
  %152 = zext i16 %151 to i32
  store i32 %152, ptr %16, align 4
  %153 = icmp ugt i32 %152, 0
  br i1 %153, label %154, label %161

154:                                              ; preds = %145
  %155 = load i32, ptr %16, align 4
  %156 = load i32, ptr %15, align 4
  %157 = add i32 %156, %155
  store i32 %157, ptr %15, align 4
  %158 = load i32, ptr %16, align 4
  %159 = load i32, ptr %17, align 4
  %160 = sub i32 %159, %158
  store i32 %160, ptr %17, align 4
  br label %161

161:                                              ; preds = %154, %145
  br label %162

162:                                              ; preds = %161, %142
  %163 = load i32, ptr %17, align 4
  %164 = icmp ne i32 %163, 0
  br i1 %164, label %165, label %182

165:                                              ; preds = %162
  %166 = load ptr, ptr %8, align 8
  %167 = load ptr, ptr %9, align 8
  %168 = load ptr, ptr %10, align 8
  %169 = load i32, ptr %15, align 4
  %170 = load i32, ptr %17, align 4
  %171 = call zeroext i16 @elem_telv(ptr noundef %166, ptr noundef %167, ptr noundef %168, i8 noundef zeroext -128, i32 noundef 13, i32 noundef 94, i32 noundef %169, i32 noundef %170, ptr noundef null)
  %172 = zext i16 %171 to i32
  store i32 %172, ptr %16, align 4
  %173 = icmp ugt i32 %172, 0
  br i1 %173, label %174, label %181

174:                                              ; preds = %165
  %175 = load i32, ptr %16, align 4
  %176 = load i32, ptr %15, align 4
  %177 = add i32 %176, %175
  store i32 %177, ptr %15, align 4
  %178 = load i32, ptr %16, align 4
  %179 = load i32, ptr %17, align 4
  %180 = sub i32 %179, %178
  store i32 %180, ptr %17, align 4
  br label %181

181:                                              ; preds = %174, %165
  br label %182

182:                                              ; preds = %181, %162
  %183 = load i32, ptr %15, align 4
  %184 = load i32, ptr %11, align 4
  %185 = sub i32 %183, %184
  %186 = trunc i32 %185 to i16
  call void @llvm.lifetime.end.p0(i64 4, ptr %17) #4
  call void @llvm.lifetime.end.p0(i64 4, ptr %16) #4
  call void @llvm.lifetime.end.p0(i64 4, ptr %15) #4
  ret i16 %186
}