; Function Attrs: null_pointer_is_valid sspstrong uwtable
define hidden zeroext i16 @de_bssgp_source_BSS_to_target_BSS_transp_cont(ptr noundef %0, ptr noundef %1, ptr noundef %2, i32 noundef %3, i32 noundef %4, ptr readnone captures(none) %5, i32 %6) #1 {
  %8 = tail call zeroext i16 @elem_telv(ptr noundef %0, ptr noundef %1, ptr noundef %2, i8 noundef zeroext 19, i32 noundef 5, i32 noundef 16, i32 noundef %3, i32 noundef %4, ptr noundef null)
  %.not = icmp eq i16 %8, 0
  br i1 %.not, label %13, label %9

9:                                                ; preds = %7
  %10 = zext i16 %8 to i32
  %11 = add i32 %3, %10
  %12 = sub i32 %4, %10
  br label %16

13:                                               ; preds = %7
  %14 = tail call ptr @get_gsm_a_msg_string(i32 noundef 5, i32 noundef 16)
  %15 = tail call ptr (ptr, ptr, ptr, ptr, i32, i32, ptr, ...) @proto_tree_add_expert_format(ptr noundef %1, ptr noundef %2, ptr noundef nonnull @ei_bssgp_missing_mandatory_element, ptr noundef %0, i32 noundef %3, i32 noundef 0, ptr noundef nonnull @.str.6, i32 noundef 19, ptr noundef %14, ptr noundef nonnull @.str.7)
  br label %16

16:                                               ; preds = %13, %9
  %.086 = phi i32 [ %11, %9 ], [ %3, %13 ]
  %.0 = phi i32 [ %12, %9 ], [ %4, %13 ]
  %.not101 = icmp eq i32 %.0, 0
  br i1 %.not101, label %.thread168, label %17

17:                                               ; preds = %16
  %18 = tail call zeroext i16 @elem_telv(ptr noundef %0, ptr noundef %1, ptr noundef %2, i8 noundef zeroext 115, i32 noundef 13, i32 noundef 84, i32 noundef %.086, i32 noundef %.0, ptr noundef null)
  %.not102 = icmp eq i16 %18, 0
  br i1 %.not102, label %.thread118, label %19

19:                                               ; preds = %17
  %20 = zext i16 %18 to i32
  %21 = add i32 %.086, %20
  %22 = sub i32 %.0, %20
  %.not103 = icmp eq i32 %22, 0
  br i1 %.not103, label %.thread168, label %.thread118

.thread118:                                       ; preds = %17, %19
  %.1123 = phi i32 [ %22, %19 ], [ %.0, %17 ]
  %.187122 = phi i32 [ %21, %19 ], [ %.086, %17 ]
  %23 = tail call zeroext i16 @elem_telv(ptr noundef %0, ptr noundef %1, ptr noundef %2, i8 noundef zeroext 109, i32 noundef 13, i32 noundef 79, i32 noundef %.187122, i32 noundef %.1123, ptr noundef null)
  %.not104 = icmp eq i16 %23, 0
  br i1 %.not104, label %.thread128, label %24

24:                                               ; preds = %.thread118
  %25 = zext i16 %23 to i32
  %26 = add i32 %.187122, %25
  %27 = sub i32 %.1123, %25
  %.not105 = icmp eq i32 %27, 0
  br i1 %.not105, label %.thread168, label %.thread128

.thread128:                                       ; preds = %.thread118, %24
  %.2133 = phi i32 [ %27, %24 ], [ %.1123, %.thread118 ]
  %.288132 = phi i32 [ %26, %24 ], [ %.187122, %.thread118 ]
  %28 = tail call zeroext i16 @elem_telv(ptr noundef %0, ptr noundef %1, ptr noundef %2, i8 noundef zeroext 110, i32 noundef 13, i32 noundef 80, i32 noundef %.288132, i32 noundef %.2133, ptr noundef null)
  %.not106 = icmp eq i16 %28, 0
  br i1 %.not106, label %.thread139, label %29

29:                                               ; preds = %.thread128
  %30 = zext i16 %28 to i32
  %31 = add i32 %.288132, %30
  %32 = sub i32 %.2133, %30
  %.not107 = icmp eq i32 %32, 0
  br i1 %.not107, label %.thread168, label %.thread139

.thread139:                                       ; preds = %.thread128, %29
  %.3144 = phi i32 [ %32, %29 ], [ %.2133, %.thread128 ]
  %.389143 = phi i32 [ %31, %29 ], [ %.288132, %.thread128 ]
  %33 = tail call zeroext i16 @elem_telv(ptr noundef %0, ptr noundef %1, ptr noundef %2, i8 noundef zeroext 111, i32 noundef 13, i32 noundef 81, i32 noundef %.389143, i32 noundef %.3144, ptr noundef null)
  %.not108 = icmp eq i16 %33, 0
  br i1 %.not108, label %.thread150, label %34

34:                                               ; preds = %.thread139
  %35 = zext i16 %33 to i32
  %36 = add i32 %.389143, %35
  %37 = sub i32 %.3144, %35
  %.not109 = icmp eq i32 %37, 0
  br i1 %.not109, label %.thread168, label %.thread150

.thread150:                                       ; preds = %.thread139, %34
  %.4155 = phi i32 [ %37, %34 ], [ %.3144, %.thread139 ]
  %.490154 = phi i32 [ %36, %34 ], [ %.389143, %.thread139 ]
  %38 = tail call zeroext i16 @elem_telv(ptr noundef %0, ptr noundef %1, ptr noundef %2, i8 noundef zeroext 117, i32 noundef 13, i32 noundef 86, i32 noundef %.490154, i32 noundef %.4155, ptr noundef null)
  %.not110 = icmp eq i16 %38, 0
  br i1 %.not110, label %.thread161, label %39

39:                                               ; preds = %.thread150
  %40 = zext i16 %38 to i32
  %41 = add i32 %.490154, %40
  %42 = sub i32 %.4155, %40
  %.not111 = icmp eq i32 %42, 0
  br i1 %.not111, label %.thread168, label %.thread161

.thread161:                                       ; preds = %.thread150, %39
  %.5166 = phi i32 [ %42, %39 ], [ %.4155, %.thread150 ]
  %.591165 = phi i32 [ %41, %39 ], [ %.490154, %.thread150 ]
  %43 = tail call zeroext i16 @elem_telv(ptr noundef %0, ptr noundef %1, ptr noundef %2, i8 noundef zeroext 122, i32 noundef 13, i32 noundef 91, i32 noundef %.591165, i32 noundef %.5166, ptr noundef null)
  %.not112 = icmp eq i16 %43, 0
  br i1 %.not112, label %.thread172, label %44

44:                                               ; preds = %.thread161
  %45 = zext i16 %43 to i32
  %46 = add i32 %.591165, %45
  %47 = sub i32 %.5166, %45
  %.not113 = icmp eq i32 %47, 0
  br i1 %.not113, label %.thread168, label %.thread172

.thread172:                                       ; preds = %.thread161, %44
  %.6177 = phi i32 [ %47, %44 ], [ %.5166, %.thread161 ]
  %.692176 = phi i32 [ %46, %44 ], [ %.591165, %.thread161 ]
  %48 = tail call zeroext i16 @elem_telv(ptr noundef %0, ptr noundef %1, ptr noundef %2, i8 noundef zeroext -128, i32 noundef 13, i32 noundef 94, i32 noundef %.692176, i32 noundef %.6177, ptr noundef null)
  %.not114 = icmp eq i16 %48, 0
  br i1 %.not114, label %.thread168, label %49

49:                                               ; preds = %.thread172
  %50 = zext i16 %48 to i32
  %51 = add i32 %.692176, %50
  br label %.thread168

.thread168:                                       ; preds = %16, %19, %24, %29, %34, %39, %.thread172, %49, %44
  %.7 = phi i32 [ %51, %49 ], [ %.692176, %.thread172 ], [ %46, %44 ], [ %41, %39 ], [ %36, %34 ], [ %31, %29 ], [ %26, %24 ], [ %21, %19 ], [ %.086, %16 ]
  %52 = sub i32 %.7, %3
  %53 = trunc i32 %52 to i16
  ret i16 %53
}